; Function Attrs: mustprogress uwtable
define hidden void @_ZN4cvc58internal6theory2eq15EqClassIteratorC2ENS0_12NodeTemplateILb1EEEPKNS2_14EqualityEngineE(ptr noundef nonnull writeonly align 8 captures(none) dereferenceable(16) initializes((0, 16)) %0, ptr noundef readonly captures(none) %1, ptr noundef nonnull %2) unnamed_addr #4 align 2 personality ptr @__gxx_personality_v0 {
  %4 = alloca %"class.cvc5::internal::NodeTemplate.126", align 8
  store ptr %2, ptr %0, align 8, !tbaa !30
  %5 = load ptr, ptr %1, align 8, !tbaa !22
  store ptr %5, ptr %4, align 8, !tbaa !34
  %6 = call noundef i32 @_ZNK4cvc58internal6theory2eq14EqualityEngine9getNodeIdENS0_12NodeTemplateILb0EEE(ptr noundef nonnull align 8 dereferenceable(1784) %2, ptr noundef nonnull %4)
  %7 = getelementptr inbounds nuw i8, ptr %0, i64 8
  store i32 %6, ptr %7, align 8, !tbaa !32
  %8 = getelementptr inbounds nuw i8, ptr %0, i64 12
  store i32 %6, ptr %8, align 4, !tbaa !33
  ret void
}